; ModuleID = '36/1173.c'
source_filename = "36/1173.c"
target datalayout = "e-m:e-p270:32:32-p271:32:32-p272:64:64-i64:64-f80:128-n8:16:32:64-S128"
target triple = "x86_64-pc-linux-gnu"

@.str = private unnamed_addr constant [5 x i8] c"%s%s\00", align 1
@.str.1 = private unnamed_addr constant [4 x i8] c"NO\0A\00", align 1
@.str.2 = private unnamed_addr constant [5 x i8] c"YES\0A\00", align 1

; Function Attrs: noinline nounwind uwtable
define dso_local i32 @main(i32 %0, i8** %1) #0 {
  %3 = alloca i32, align 4
  %4 = alloca i32, align 4
  %5 = alloca i8**, align 8
  %6 = alloca [50 x i8], align 16
  %7 = alloca [50 x i8], align 16
  %8 = alloca i32, align 4
  %9 = alloca i32, align 4
  %10 = alloca i32, align 4
  %11 = alloca i32, align 4
  %12 = alloca i32, align 4
  store i32 0, i32* %3, align 4
  store i32 %0, i32* %4, align 4
  store i8** %1, i8*** %5, align 8
  store i32 0, i32* %12, align 4
  %13 = getelementptr inbounds [50 x i8], [50 x i8]* %6, i64 0, i64 0
  %14 = getelementptr inbounds [50 x i8], [50 x i8]* %7, i64 0, i64 0
  %15 = call i32 (i8*, ...) @__isoc99_scanf(i8* getelementptr inbounds ([5 x i8], [5 x i8]* @.str, i64 0, i64 0), i8* %13, i8* %14)
  %16 = getelementptr inbounds [50 x i8], [50 x i8]* %6, i64 0, i64 0
  %17 = call i64 @strlen(i8* %16) #3
  %18 = trunc i64 %17 to i32
  store i32 %18, i32* %8, align 4
  %19 = getelementptr inbounds [50 x i8], [50 x i8]* %7, i64 0, i64 0
  %20 = call i64 @strlen(i8* %19) #3
  %21 = trunc i64 %20 to i32
  store i32 %21, i32* %9, align 4
  %22 = load i32, i32* %8, align 4
  %23 = load i32, i32* %9, align 4
  %24 = icmp ne i32 %22, %23
  br i1 %24, label %25, label %27

25:                                               ; preds = %2
  %26 = call i32 (i8*, ...) @printf(i8* getelementptr inbounds ([4 x i8], [4 x i8]* @.str.1, i64 0, i64 0))
  br label %77

27:                                               ; preds = %2
  store i32 0, i32* %10, align 4
  br label %28

28:                                               ; preds = %66, %27
  %29 = load i32, i32* %10, align 4
  %30 = load i32, i32* %8, align 4
  %31 = icmp slt i32 %29, %30
  br i1 %31, label %32, label %69

32:                                               ; preds = %28
  store i32 0, i32* %11, align 4
  br label %33

33:                                               ; preds = %62, %32
  %34 = load i32, i32* %11, align 4
  %35 = load i32, i32* %9, align 4
  %36 = icmp slt i32 %34, %35
  br i1 %36, label %37, label %65

37:                                               ; preds = %33
  %38 = load i32, i32* %10, align 4
  %39 = sext i32 %38 to i64
  %40 = getelementptr inbounds [50 x i8], [50 x i8]* %6, i64 0, i64 %39
  %41 = load i8, i8* %40, align 1
  %42 = sext i8 %41 to i32
  %43 = load i32, i32* %11, align 4
  %44 = sext i32 %43 to i64
  %45 = getelementptr inbounds [50 x i8], [50 x i8]* %7, i64 0, i64 %44
  %46 = load i8, i8* %45, align 1
  %47 = sext i8 %46 to i32
  %48 = icmp eq i32 %42, %47
  br i1 %48, label %49, label %60

49:                                               ; preds = %37
  %50 = load i32, i32* %11, align 4
  %51 = sext i32 %50 to i64
  %52 = getelementptr inbounds [50 x i8], [50 x i8]* %7, i64 0, i64 %51
  %53 = load i8, i8* %52, align 1
  %54 = sext i8 %53 to i32
  %55 = icmp ne i32 %54, 0
  br i1 %55, label %56, label %60

56:                                               ; preds = %49
  %57 = load i32, i32* %11, align 4
  %58 = sext i32 %57 to i64
  %59 = getelementptr inbounds [50 x i8], [50 x i8]* %7, i64 0, i64 %58
  store i8 0, i8* %59, align 1
  store i32 1, i32* %12, align 4
  br label %65

60:                                               ; preds = %49, %37
  store i32 0, i32* %12, align 4
  br label %61

61:                                               ; preds = %60
  br label %62

62:                                               ; preds = %61
  %63 = load i32, i32* %11, align 4
  %64 = add nsw i32 %63, 1
  store i32 %64, i32* %11, align 4
  br label %33

65:                                               ; preds = %56, %33
  br label %66

66:                                               ; preds = %65
  %67 = load i32, i32* %10, align 4
  %68 = add nsw i32 %67, 1
  store i32 %68, i32* %10, align 4
  br label %28

69:                                               ; preds = %28
  %70 = load i32, i32* %12, align 4
  %71 = icmp ne i32 %70, 0
  br i1 %71, label %72, label %74

72:                                               ; preds = %69
  %73 = call i32 (i8*, ...) @printf(i8* getelementptr inbounds ([5 x i8], [5 x i8]* @.str.2, i64 0, i64 0))
  br label %76

74:                                               ; preds = %69
  %75 = call i32 (i8*, ...) @printf(i8* getelementptr inbounds ([4 x i8], [4 x i8]* @.str.1, i64 0, i64 0))
  br label %76

76:                                               ; preds = %74, %72
  br label %77

77:                                               ; preds = %76, %25
  ret i32 0
}

declare dso_local i32 @__isoc99_scanf(i8*, ...) #1

; Function Attrs: nounwind readonly
declare dso_local i64 @strlen(i8*) #2

declare dso_local i32 @printf(i8*, ...) #1


!llvm.module.flags = !{!0}
!llvm.ident = !{!1}

!0 = !{i32 1, !"wchar_size", i32 4}
!1 = !{!"clang version 10.0.0-4ubuntu1 "}
